target datalayout = "e-m:e-p270:32:32-p271:32:32-p272:64:64-i64:64-i128:128-f80:128-n8:16:32:64-S128"
target triple = "x86_64-pc-linux-gnu"

; Function Attrs: nounwind uwtable
define i32 @get_100_bits_from_tablesize(ptr noundef %0, ptr noundef %1, i32 noundef %2) #0 {
  %4 = alloca ptr, align 8
  %5 = alloca ptr, align 8
  %6 = alloca i32, align 4
  %7 = alloca i32, align 4
  %8 = alloca i32, align 4
  %9 = alloca i32, align 4
  store ptr %0, ptr %4, align 8
  store ptr %1, ptr %5, align 8
  store i32 %2, ptr %6, align 4
  store i32 1, ptr %7, align 4
  br label %10

10:                                               ; preds = %59, %3
  %11 = load i32, ptr %7, align 4
  %12 = icmp ult i32 %11, 256
  br i1 %12, label %13, label %60

13:                                               ; preds = %10
  %14 = load i32, ptr %6, align 4
  %15 = and i32 %14, 255
  store i32 %15, ptr %8, align 4
  %16 = load i32, ptr %6, align 4
  %17 = and i32 %16, -256
  %18 = load i32, ptr %8, align 4
  %19 = shl i32 %18, 1
  %20 = and i32 %19, 255
  %21 = or i32 %17, %20
  store i32 %21, ptr %6, align 4
  %22 = load i32, ptr %8, align 4
  %23 = lshr i32 %22, 7
  store i32 %23, ptr %8, align 4
  %24 = load i32, ptr %8, align 4
  %25 = add i32 %24, 1
  store i32 %25, ptr %9, align 4
  %26 = load i32, ptr %9, align 4
  %27 = shl i32 %26, 8
  store i32 %27, ptr %9, align 4
  %28 = load i32, ptr %7, align 4
  %29 = load i32, ptr %9, align 4
  %30 = add i32 %29, %28
  store i32 %30, ptr %9, align 4
  %31 = load ptr, ptr %4, align 8
  %32 = load i32, ptr %9, align 4
  %33 = zext i32 %32 to i64
  %34 = getelementptr inbounds i16, ptr %31, i64 %33
  %35 = load ptr, ptr %5, align 8
  %36 = call i32 @getbit_from_table(ptr noundef %34, ptr noundef %35)
  store i32 %36, ptr %9, align 4
  %37 = load i32, ptr %7, align 4
  %38 = mul i32 %37, 2
  %39 = load i32, ptr %9, align 4
  %40 = or i32 %38, %39
  store i32 %40, ptr %7, align 4
  %41 = load i32, ptr %8, align 4
  %42 = load i32, ptr %9, align 4
  %43 = icmp ne i32 %41, %42
  br i1 %43, label %44, label %59

44:                                               ; preds = %13
  br label %45

45:                                               ; preds = %48, %44
  %46 = load i32, ptr %7, align 4
  %47 = icmp ult i32 %46, 256
  br i1 %47, label %48, label %58

48:                                               ; preds = %45
  %49 = load i32, ptr %7, align 4
  %50 = mul i32 %49, 2
  %51 = load ptr, ptr %4, align 8
  %52 = load i32, ptr %7, align 4
  %53 = zext i32 %52 to i64
  %54 = getelementptr inbounds i16, ptr %51, i64 %53
  %55 = load ptr, ptr %5, align 8
  %56 = call i32 @getbit_from_table(ptr noundef %54, ptr noundef %55)
  %57 = or i32 %50, %56
  store i32 %57, ptr %7, align 4
  br label %45

58:                                               ; preds = %45
  br label %59

59:                                               ; preds = %58, %13
  br label %10

60:                                               ; preds = %10
  %61 = load i32, ptr %7, align 4
  %62 = and i32 %61, 255
  ret i32 %62
}