; Function Attrs: nofree norecurse nosync nounwind memory(read, argmem: readwrite, inaccessiblemem: none) uwtable
define i32 @get_100_bits_from_tablesize(ptr noundef %0, ptr nocapture noundef %1, i32 noundef %2) local_unnamed_addr #4 {
  %4 = getelementptr inbounds i8, ptr %1, i64 28
  %5 = getelementptr inbounds i8, ptr %1, i64 32
  %6 = getelementptr inbounds i8, ptr %1, i64 16
  %7 = getelementptr inbounds i8, ptr %1, i64 20
  %8 = getelementptr inbounds i8, ptr %1, i64 8
  %9 = getelementptr inbounds i8, ptr %1, i64 24
  %10 = and i32 %2, 255
  br label %11

11:                                               ; preds = %3, %.loopexit
  %.027 = phi i32 [ %10, %3 ], [ %13, %.loopexit ]
  %.02326 = phi i32 [ 1, %3 ], [ %.2, %.loopexit ]
  %12 = shl nuw nsw i32 %.027, 1
  %13 = and i32 %12, 254
  %14 = lshr i32 %.027, 7
  %15 = shl nuw nsw i32 %14, 8
  %16 = add nuw nsw i32 %15, 256
  %17 = or disjoint i32 %16, %.02326
  %18 = zext nneg i32 %17 to i64
  %19 = getelementptr inbounds i16, ptr %0, i64 %18
  %20 = tail call i32 @getbit_from_table(ptr noundef nonnull %19, ptr noundef %1), !range !5
  %21 = shl nuw nsw i32 %.02326, 1
  %22 = or i32 %20, %21
  %23 = icmp ne i32 %14, %20
  %24 = icmp ult i32 %22, 256
  %or.cond = select i1 %23, i1 %24, i1 false
  br i1 %or.cond, label %.preheader, label %.loopexit

.preheader:                                       ; preds = %11
  %25 = load i32, ptr %4, align 4
  %26 = icmp ult i32 %25, 2
  br i1 %26, label %.preheader.split.us, label %.preheader.split

.preheader.split.us:                              ; preds = %.preheader
  store i32 1, ptr %9, align 8
  br label %getbit_from_table.exit.us

getbit_from_table.exit.us:                        ; preds = %getbit_from_table.exit.us, %.preheader.split.us
  %.1.us = phi i32 [ %28, %getbit_from_table.exit.us ], [ %22, %.preheader.split.us ]
  %27 = shl nuw nsw i32 %.1.us, 1
  %28 = or i32 %27, 255
  %.old1.us = icmp ult i32 %.1.us, 128
  br i1 %.old1.us, label %getbit_from_table.exit.us, label %.loopexit

.preheader.splitthread-pre-split:                 ; preds = %getbit_from_table.exit
  %.pr = load i32, ptr %4, align 4
  br label %.preheader.split

.preheader.split:                                 ; preds = %.preheader, %.preheader.splitthread-pre-split
  %29 = phi i32 [ %.pr, %.preheader.splitthread-pre-split ], [ %25, %.preheader ]
  %.1 = phi i32 [ %93, %.preheader.splitthread-pre-split ], [ %22, %.preheader ]
  %30 = shl nuw nsw i32 %.1, 1
  %31 = zext nneg i32 %.1 to i64
  %32 = getelementptr inbounds i16, ptr %0, i64 %31
  %33 = zext i32 %29 to i64
  %switch.i = icmp ult i32 %29, 2
  br i1 %switch.i, label %43, label %34

34:                                               ; preds = %.preheader.split
  %35 = load ptr, ptr %5, align 8
  %.not52.i = icmp ugt ptr %35, %32
  br i1 %.not52.i, label %43, label %36

36:                                               ; preds = %34
  %37 = ptrtoint ptr %35 to i64
  %38 = ptrtoint ptr %32 to i64
  %39 = add i64 %38, 2
  %40 = add i64 %37, %33
  %.not53.i = icmp ule i64 %39, %40
  %41 = icmp ugt i64 %39, %37
  %or.cond.i = and i1 %41, %.not53.i
  %42 = icmp ugt i64 %40, %38
  %or.cond54.i = and i1 %42, %or.cond.i
  br i1 %or.cond54.i, label %44, label %43

43:                                               ; preds = %36, %34, %.preheader.split
  store i32 1, ptr %9, align 8
  br label %getbit_from_table.exit

44:                                               ; preds = %36
  %45 = load i16, ptr %32, align 2
  %46 = zext i16 %45 to i32
  %47 = load i32, ptr %6, align 8
  %48 = lshr i32 %47, 11
  %49 = mul i32 %48, %46
  %50 = load i32, ptr %7, align 4
  %51 = icmp ult i32 %50, %49
  br i1 %51, label %52, label %73

52:                                               ; preds = %44
  store i32 %49, ptr %6, align 8
  %53 = load i16, ptr %32, align 2
  %54 = zext i16 %53 to i32
  %55 = sub nsw i32 2048, %54
  %56 = ashr i32 %55, 5
  %57 = trunc nsw i32 %56 to i16
  %58 = add i16 %53, %57
  store i16 %58, ptr %32, align 2
  %59 = load i32, ptr %6, align 8
  %60 = icmp ult i32 %59, 16777216
  br i1 %60, label %61, label %getbit_from_table.exit

61:                                               ; preds = %52
  %62 = load i32, ptr %7, align 4
  %63 = shl i32 %62, 8
  %64 = load ptr, ptr %1, align 8
  %65 = load ptr, ptr %8, align 8
  %.not.i.i = icmp ult ptr %64, %65
  br i1 %.not.i.i, label %67, label %66

66:                                               ; preds = %61
  store i32 1, ptr %9, align 8
  br label %get_byte.exit.i

67:                                               ; preds = %61
  %68 = load i8, ptr %64, align 1
  %69 = zext i8 %68 to i32
  %70 = getelementptr inbounds i8, ptr %64, i64 1
  store ptr %70, ptr %1, align 8
  br label %get_byte.exit.i

get_byte.exit.i:                                  ; preds = %67, %66
  %.0.i.i = phi i32 [ 255, %66 ], [ %69, %67 ]
  %71 = or disjoint i32 %.0.i.i, %63
  store i32 %71, ptr %7, align 4
  %72 = shl nuw i32 %59, 8
  store i32 %72, ptr %6, align 8
  br label %getbit_from_table.exit

73:                                               ; preds = %44
  %74 = sub i32 %47, %49
  store i32 %74, ptr %6, align 8
  %75 = sub i32 %50, %49
  store i32 %75, ptr %7, align 4
  %76 = load i16, ptr %32, align 2
  %77 = lshr i16 %76, 5
  %78 = sub i16 %76, %77
  store i16 %78, ptr %32, align 2
  %79 = load i32, ptr %6, align 8
  %80 = icmp ult i32 %79, 16777216
  br i1 %80, label %81, label %getbit_from_table.exit

81:                                               ; preds = %73
  %82 = load i32, ptr %7, align 4
  %83 = shl i32 %82, 8
  %84 = load ptr, ptr %1, align 8
  %85 = load ptr, ptr %8, align 8
  %.not.i55.i = icmp ult ptr %84, %85
  br i1 %.not.i55.i, label %87, label %86

86:                                               ; preds = %81
  store i32 1, ptr %9, align 8
  br label %get_byte.exit57.i

87:                                               ; preds = %81
  %88 = load i8, ptr %84, align 1
  %89 = zext i8 %88 to i32
  %90 = getelementptr inbounds i8, ptr %84, i64 1
  store ptr %90, ptr %1, align 8
  br label %get_byte.exit57.i

get_byte.exit57.i:                                ; preds = %87, %86
  %.0.i56.i = phi i32 [ 255, %86 ], [ %89, %87 ]
  %91 = or disjoint i32 %.0.i56.i, %83
  store i32 %91, ptr %7, align 4
  %92 = shl nuw i32 %79, 8
  store i32 %92, ptr %6, align 8
  br label %getbit_from_table.exit

getbit_from_table.exit:                           ; preds = %43, %52, %get_byte.exit.i, %73, %get_byte.exit57.i
  %.0.i = phi i32 [ 255, %43 ], [ 0, %get_byte.exit.i ], [ 0, %52 ], [ 1, %get_byte.exit57.i ], [ 1, %73 ]
  %93 = or i32 %.0.i, %30
  %.old1 = icmp ult i32 %93, 256
  br i1 %.old1, label %.preheader.splitthread-pre-split, label %.loopexit.thread, !llvm.loop !6

.loopexit:                                        ; preds = %getbit_from_table.exit.us, %11
  %.2 = phi i32 [ %22, %11 ], [ %28, %getbit_from_table.exit.us ]
  %94 = icmp ult i32 %.2, 256
  br i1 %94, label %11, label %.loopexit.thread

.loopexit.thread:                                 ; preds = %.loopexit, %getbit_from_table.exit
  %.231 = phi i32 [ %93, %getbit_from_table.exit ], [ %.2, %.loopexit ]
  %95 = and i32 %.231, 255
  ret i32 %95
}